target datalayout = "e-m:e-p270:32:32-p271:32:32-p272:64:64-i64:64-i128:128-f80:128-n8:16:32:64-S128"
target triple = "x86_64-pc-linux-gnu"

%class.QAbstractItemModel = type { %class.QObject }
%class.QObject = type { ptr, %class.QScopedPointer }
%class.QScopedPointer = type { ptr }
%class.QAbstractProxyModel = type { %class.QAbstractItemModel }
%class.QList.5 = type { %struct.QArrayDataPointer.8 }
%struct.QArrayDataPointer.8 = type { ptr, ptr, i64 }
%"class.QList<int>::const_iterator" = type { ptr }
%class.AStringListListUrlProxyModel = type { %class.QIdentityProxyModel, %class.QList.5 }
%class.QIdentityProxyModel = type { %class.QAbstractProxyModel }

; Function Attrs: mustprogress nounwind null_pointer_is_valid sspstrong uwtable
define linkonce_odr noundef ptr @_ZNK17QArrayDataPointerIiE4dataEv(ptr noundef align 8 dereferenceable_or_null(24) %0) #2 comdat align 2 {
  %2 = alloca ptr, align 8
  store ptr %0, ptr %2, align 8
  %3 = load ptr, ptr %2, align 8
  %4 = getelementptr inbounds nuw %struct.QArrayDataPointer.8, ptr %3, i32 0, i32 1
  %5 = load ptr, ptr %4, align 8
  ret ptr %5
}

; Function Attrs: mustprogress nounwind null_pointer_is_valid sspstrong uwtable
define linkonce_odr noundef ptr @_ZNK17QArrayDataPointerIiE8constEndEv(ptr noundef align 8 dereferenceable_or_null(24) %0) #2 comdat align 2 {
  %2 = alloca ptr, align 8
  store ptr %0, ptr %2, align 8
  %3 = load ptr, ptr %2, align 8
  %4 = call noundef ptr @_ZNK17QArrayDataPointerIiE4dataEv(ptr noundef align 8 dereferenceable_or_null(24) %3) #23
  %5 = getelementptr inbounds nuw %struct.QArrayDataPointer.8, ptr %3, i32 0, i32 2
  %6 = load i64, ptr %5, align 8
  %7 = getelementptr i32, ptr %4, i64 %6
  ret ptr %7
}

; Function Attrs: inlinehint mustprogress nounwind null_pointer_is_valid sspstrong uwtable
define linkonce_odr void @_ZN5QListIiE14const_iteratorC2EPKi(ptr noundef align 8 dereferenceable_or_null(8) %0, ptr noundef %1) unnamed_addr #4 comdat align 2 {
  %3 = alloca ptr, align 8
  %4 = alloca ptr, align 8
  store ptr %0, ptr %3, align 8
  store ptr %1, ptr %4, align 8
  %5 = load ptr, ptr %3, align 8
  %6 = getelementptr inbounds nuw %"class.QList<int>::const_iterator", ptr %5, i32 0, i32 0
  %7 = load ptr, ptr %4, align 8
  store ptr %7, ptr %6, align 8
  ret void
}

; Function Attrs: mustprogress nounwind null_pointer_is_valid sspstrong uwtable
define linkonce_odr noundef ptr @_ZNK17QArrayDataPointerIiE10constBeginEv(ptr noundef align 8 dereferenceable_or_null(24) %0) #2 comdat align 2 {
  %2 = alloca ptr, align 8
  store ptr %0, ptr %2, align 8
  %3 = load ptr, ptr %2, align 8
  %4 = call noundef ptr @_ZNK17QArrayDataPointerIiE4dataEv(ptr noundef align 8 dereferenceable_or_null(24) %3) #23
  ret ptr %4
}

; Function Attrs: mustprogress nounwind null_pointer_is_valid sspstrong uwtable
define linkonce_odr noundef ptr @_ZNK17QArrayDataPointerIiEptEv(ptr noundef align 8 dereferenceable_or_null(24) %0) #2 comdat align 2 {
  %2 = alloca ptr, align 8
  store ptr %0, ptr %2, align 8
  %3 = load ptr, ptr %2, align 8
  ret ptr %3
}

; Function Attrs: inlinehint mustprogress nounwind null_pointer_is_valid sspstrong uwtable
define linkonce_odr noundef i64 @_ZNK5QListIiE14const_iteratormiES1_(ptr noundef align 8 dereferenceable_or_null(8) %0, ptr %1) #4 comdat align 2 {
  %3 = alloca %"class.QList<int>::const_iterator", align 8
  %4 = alloca ptr, align 8
  %5 = getelementptr inbounds nuw %"class.QList<int>::const_iterator", ptr %3, i32 0, i32 0
  store ptr %1, ptr %5, align 8
  store ptr %0, ptr %4, align 8
  %6 = load ptr, ptr %4, align 8
  %7 = getelementptr inbounds nuw %"class.QList<int>::const_iterator", ptr %6, i32 0, i32 0
  %8 = load ptr, ptr %7, align 8
  %9 = getelementptr inbounds nuw %"class.QList<int>::const_iterator", ptr %3, i32 0, i32 0
  %10 = load ptr, ptr %9, align 8
  %11 = ptrtoint ptr %8 to i64
  %12 = ptrtoint ptr %10 to i64
  %13 = sub i64 %11, %12
  %14 = sdiv exact i64 %13, 4
  ret i64 %14
}

; Function Attrs: inlinehint mustprogress nounwind null_pointer_is_valid sspstrong uwtable
define linkonce_odr noundef align 4 dereferenceable(4) ptr @_ZNK5QListIiE14const_iteratordeEv(ptr noundef align 8 dereferenceable_or_null(8) %0) #4 comdat align 2 {
  %2 = alloca ptr, align 8
  store ptr %0, ptr %2, align 8
  %3 = load ptr, ptr %2, align 8
  %4 = getelementptr inbounds nuw %"class.QList<int>::const_iterator", ptr %3, i32 0, i32 0
  %5 = load ptr, ptr %4, align 8
  ret ptr %5
}

; Function Attrs: inlinehint mustprogress nounwind null_pointer_is_valid sspstrong uwtable
define linkonce_odr noundef zeroext i1 @_ZNK5QListIiE14const_iteratorneES1_(ptr noundef align 8 dereferenceable_or_null(8) %0, ptr %1) #4 comdat align 2 {
  %3 = alloca %"class.QList<int>::const_iterator", align 8
  %4 = alloca ptr, align 8
  %5 = getelementptr inbounds nuw %"class.QList<int>::const_iterator", ptr %3, i32 0, i32 0
  store ptr %1, ptr %5, align 8
  store ptr %0, ptr %4, align 8
  %6 = load ptr, ptr %4, align 8
  %7 = getelementptr inbounds nuw %"class.QList<int>::const_iterator", ptr %6, i32 0, i32 0
  %8 = load ptr, ptr %7, align 8
  %9 = getelementptr inbounds nuw %"class.QList<int>::const_iterator", ptr %3, i32 0, i32 0
  %10 = load ptr, ptr %9, align 8
  %11 = icmp ne ptr %8, %10
  ret i1 %11
}

; Function Attrs: inlinehint mustprogress nounwind null_pointer_is_valid sspstrong uwtable
define linkonce_odr noundef align 8 dereferenceable(8) ptr @_ZN5QListIiE14const_iteratorppEv(ptr noundef align 8 dereferenceable_or_null(8) %0) #4 comdat align 2 {
  %2 = alloca ptr, align 8
  store ptr %0, ptr %2, align 8
  %3 = load ptr, ptr %2, align 8
  %4 = getelementptr inbounds nuw %"class.QList<int>::const_iterator", ptr %3, i32 0, i32 0
  %5 = load ptr, ptr %4, align 8
  %6 = getelementptr i32, ptr %5, i32 1
  store ptr %6, ptr %4, align 8
  ret ptr %3
}

; Function Attrs: mustprogress nounwind null_pointer_is_valid sspstrong uwtable
define linkonce_odr ptr @_ZNK5QListIiE3endEv(ptr noundef align 8 dereferenceable_or_null(24) %0) #2 comdat align 2 personality ptr @__gxx_personality_v0 {
  %2 = alloca %"class.QList<int>::const_iterator", align 8
  %3 = alloca ptr, align 8
  store ptr %0, ptr %3, align 8
  %4 = load ptr, ptr %3, align 8
  %5 = getelementptr inbounds nuw %class.QList.5, ptr %4, i32 0, i32 0
  %6 = call noundef ptr @_ZNK17QArrayDataPointerIiEptEv(ptr noundef align 8 dereferenceable_or_null(24) %5) #23
  %7 = call noundef ptr @_ZNK17QArrayDataPointerIiE8constEndEv(ptr noundef align 8 dereferenceable_or_null(24) %6) #23
  invoke void @_ZN5QListIiE14const_iteratorC2EPKi(ptr noundef align 8 dereferenceable_or_null(8) %2, ptr noundef %7)
          to label %8 unwind label %11

8:                                                ; preds = %1
  %9 = getelementptr inbounds nuw %"class.QList<int>::const_iterator", ptr %2, i32 0, i32 0
  %10 = load ptr, ptr %9, align 8
  ret ptr %10

11:                                               ; preds = %1
  %12 = landingpad { ptr, i32 }
          catch ptr null
  %13 = extractvalue { ptr, i32 } %12, 0
  call void @__clang_call_terminate(ptr %13) #24
  unreachable
}

; Function Attrs: mustprogress null_pointer_is_valid sspstrong uwtable
define linkonce_odr ptr @_ZNK5QListIiE14const_iteratormiIiEENSt9enable_ifIXsr3stdE13is_integral_vIT_EES1_E4typeES4_(ptr noundef align 8 dereferenceable_or_null(8) %0, i32 noundef %1) #0 comdat align 2 {
  %3 = alloca %"class.QList<int>::const_iterator", align 8
  %4 = alloca ptr, align 8
  %5 = alloca i32, align 4
  store ptr %0, ptr %4, align 8
  store i32 %1, ptr %5, align 4
  %6 = load ptr, ptr %4, align 8
  %7 = getelementptr inbounds nuw %"class.QList<int>::const_iterator", ptr %6, i32 0, i32 0
  %8 = load ptr, ptr %7, align 8
  %9 = load i32, ptr %5, align 4
  %10 = sext i32 %9 to i64
  %11 = sub i64 0, %10
  %12 = getelementptr i32, ptr %8, i64 %11
  call void @_ZN5QListIiE14const_iteratorC2EPKi(ptr noundef align 8 dereferenceable_or_null(8) %3, ptr noundef %12)
  %13 = getelementptr inbounds nuw %"class.QList<int>::const_iterator", ptr %3, i32 0, i32 0
  %14 = load ptr, ptr %13, align 8
  ret ptr %14
}

; Function Attrs: mustprogress null_pointer_is_valid sspstrong uwtable
define linkonce_odr ptr @_ZNK5QListIiE14const_iteratorplIxEENSt9enable_ifIXsr3stdE13is_integral_vIT_EES1_E4typeES4_(ptr noundef align 8 dereferenceable_or_null(8) %0, i64 noundef %1) #0 comdat align 2 {
  %3 = alloca %"class.QList<int>::const_iterator", align 8
  %4 = alloca ptr, align 8
  %5 = alloca i64, align 8
  store ptr %0, ptr %4, align 8
  store i64 %1, ptr %5, align 8
  %6 = load ptr, ptr %4, align 8
  %7 = getelementptr inbounds nuw %"class.QList<int>::const_iterator", ptr %6, i32 0, i32 0
  %8 = load ptr, ptr %7, align 8
  %9 = load i64, ptr %5, align 8
  %10 = getelementptr i32, ptr %8, i64 %9
  call void @_ZN5QListIiE14const_iteratorC2EPKi(ptr noundef align 8 dereferenceable_or_null(8) %3, ptr noundef %10)
  %11 = getelementptr inbounds nuw %"class.QList<int>::const_iterator", ptr %3, i32 0, i32 0
  %12 = load ptr, ptr %11, align 8
  ret ptr %12
}

; Function Attrs: mustprogress nounwind null_pointer_is_valid sspstrong uwtable
define linkonce_odr ptr @_ZNK5QListIiE5beginEv(ptr noundef align 8 dereferenceable_or_null(24) %0) #2 comdat align 2 personality ptr @__gxx_personality_v0 {
  %2 = alloca %"class.QList<int>::const_iterator", align 8
  %3 = alloca ptr, align 8
  store ptr %0, ptr %3, align 8
  %4 = load ptr, ptr %3, align 8
  %5 = getelementptr inbounds nuw %class.QList.5, ptr %4, i32 0, i32 0
  %6 = call noundef ptr @_ZNK17QArrayDataPointerIiEptEv(ptr noundef align 8 dereferenceable_or_null(24) %5) #23
  %7 = call noundef ptr @_ZNK17QArrayDataPointerIiE10constBeginEv(ptr noundef align 8 dereferenceable_or_null(24) %6) #23
  invoke void @_ZN5QListIiE14const_iteratorC2EPKi(ptr noundef align 8 dereferenceable_or_null(8) %2, ptr noundef %7)
          to label %8 unwind label %11

8:                                                ; preds = %1
  %9 = getelementptr inbounds nuw %"class.QList<int>::const_iterator", ptr %2, i32 0, i32 0
  %10 = load ptr, ptr %9, align 8
  ret ptr %10

11:                                               ; preds = %1
  %12 = landingpad { ptr, i32 }
          catch ptr null
  %13 = extractvalue { ptr, i32 } %12, 0
  call void @__clang_call_terminate(ptr %13) #24
  unreachable
}

; Function Attrs: inlinehint mustprogress nounwind null_pointer_is_valid sspstrong uwtable
define linkonce_odr noundef align 8 dereferenceable(8) ptr @_Z4qMaxIxERKT_S2_S2_(ptr noundef align 8 dereferenceable(8) %0, ptr noundef align 8 dereferenceable(8) %1) #4 comdat {
  %3 = alloca ptr, align 8
  %4 = alloca ptr, align 8
  store ptr %0, ptr %3, align 8
  store ptr %1, ptr %4, align 8
  %5 = load ptr, ptr %3, align 8
  %6 = load i64, ptr %5, align 8
  %7 = load ptr, ptr %4, align 8
  %8 = load i64, ptr %7, align 8
  %9 = icmp slt i64 %6, %8
  br i1 %9, label %10, label %12

10:                                               ; preds = %2
  %11 = load ptr, ptr %4, align 8
  br label %14

12:                                               ; preds = %2
  %13 = load ptr, ptr %3, align 8
  br label %14

14:                                               ; preds = %12, %10
  %15 = phi ptr [ %11, %10 ], [ %13, %12 ]
  ret ptr %15
}

; Function Attrs: mustprogress nounwind null_pointer_is_valid sspstrong uwtable
define linkonce_odr noundef i64 @_ZNK5QListIiE4sizeEv(ptr noundef align 8 dereferenceable_or_null(24) %0) #2 comdat align 2 {
  %2 = alloca ptr, align 8
  store ptr %0, ptr %2, align 8
  %3 = load ptr, ptr %2, align 8
  %4 = getelementptr inbounds nuw %class.QList.5, ptr %3, i32 0, i32 0
  %5 = call noundef ptr @_ZNK17QArrayDataPointerIiEptEv(ptr noundef align 8 dereferenceable_or_null(24) %4) #23
  %6 = getelementptr inbounds nuw %struct.QArrayDataPointer.8, ptr %5, i32 0, i32 2
  %7 = load i64, ptr %6, align 8
  ret i64 %7
}

; Function Attrs: mustprogress nounwind null_pointer_is_valid sspstrong uwtable
define linkonce_odr noundef i64 @_ZN9QtPrivate7indexOfIiiEExRK5QListIT_ERKT0_x(ptr noundef align 8 dereferenceable(24) %0, ptr noundef align 4 dereferenceable(4) %1, i64 noundef %2) #2 comdat personality ptr @__gxx_personality_v0 {
  %4 = alloca i64, align 8
  %5 = alloca ptr, align 8
  %6 = alloca ptr, align 8
  %7 = alloca i64, align 8
  %8 = alloca i64, align 8
  %9 = alloca i64, align 8
  %10 = alloca %"class.QList<int>::const_iterator", align 8
  %11 = alloca %"class.QList<int>::const_iterator", align 8
  %12 = alloca %"class.QList<int>::const_iterator", align 8
  %13 = alloca %"class.QList<int>::const_iterator", align 8
  %14 = alloca %"class.QList<int>::const_iterator", align 8
  %15 = alloca %"class.QList<int>::const_iterator", align 8
  %16 = alloca i32, align 4
  store ptr %0, ptr %5, align 8
  store ptr %1, ptr %6, align 8
  store i64 %2, ptr %7, align 8
  %17 = load i64, ptr %7, align 8
  %18 = icmp slt i64 %17, 0
  br i1 %18, label %19, label %26

19:                                               ; preds = %3
  call void @llvm.lifetime.start.p0(i64 8, ptr %8) #23
  %20 = load i64, ptr %7, align 8
  %21 = load ptr, ptr %5, align 8
  %22 = call noundef i64 @_ZNK5QListIiE4sizeEv(ptr noundef align 8 dereferenceable_or_null(24) %21) #23
  %23 = add i64 %20, %22
  store i64 %23, ptr %8, align 8
  call void @llvm.lifetime.start.p0(i64 8, ptr %9) #23
  store i64 0, ptr %9, align 8
  %24 = call noundef align 8 dereferenceable(8) ptr @_Z4qMaxIxERKT_S2_S2_(ptr noundef align 8 dereferenceable(8) %8, ptr noundef align 8 dereferenceable(8) %9)
  %25 = load i64, ptr %24, align 8
  store i64 %25, ptr %7, align 8
  call void @llvm.lifetime.end.p0(i64 8, ptr %9) #23
  call void @llvm.lifetime.end.p0(i64 8, ptr %8) #23
  br label %26

26:                                               ; preds = %19, %3
  %27 = load i64, ptr %7, align 8
  %28 = load ptr, ptr %5, align 8
  %29 = call noundef i64 @_ZNK5QListIiE4sizeEv(ptr noundef align 8 dereferenceable_or_null(24) %28) #23
  %30 = icmp slt i64 %27, %29
  br i1 %30, label %31, label %71

31:                                               ; preds = %26
  call void @llvm.lifetime.start.p0(i64 8, ptr %10) #23
  call void @llvm.lifetime.start.p0(i64 8, ptr %11) #23
  call void @llvm.lifetime.start.p0(i64 8, ptr %12) #23
  %32 = load ptr, ptr %5, align 8
  %33 = call ptr @_ZNK5QListIiE5beginEv(ptr noundef align 8 dereferenceable_or_null(24) %32) #23
  %34 = getelementptr inbounds nuw %"class.QList<int>::const_iterator", ptr %12, i32 0, i32 0
  store ptr %33, ptr %34, align 8
  %35 = load i64, ptr %7, align 8
  %36 = invoke ptr @_ZNK5QListIiE14const_iteratorplIxEENSt9enable_ifIXsr3stdE13is_integral_vIT_EES1_E4typeES4_(ptr noundef align 8 dereferenceable_or_null(8) %12, i64 noundef %35)
          to label %37 unwind label %74

37:                                               ; preds = %31
  %38 = getelementptr inbounds nuw %"class.QList<int>::const_iterator", ptr %11, i32 0, i32 0
  store ptr %36, ptr %38, align 8
  %39 = invoke ptr @_ZNK5QListIiE14const_iteratormiIiEENSt9enable_ifIXsr3stdE13is_integral_vIT_EES1_E4typeES4_(ptr noundef align 8 dereferenceable_or_null(8) %11, i32 noundef 1)
          to label %40 unwind label %74

40:                                               ; preds = %37
  %41 = getelementptr inbounds nuw %"class.QList<int>::const_iterator", ptr %10, i32 0, i32 0
  store ptr %39, ptr %41, align 8
  call void @llvm.lifetime.end.p0(i64 8, ptr %12) #23
  call void @llvm.lifetime.end.p0(i64 8, ptr %11) #23
  call void @llvm.lifetime.start.p0(i64 8, ptr %13) #23
  %42 = load ptr, ptr %5, align 8
  %43 = call ptr @_ZNK5QListIiE3endEv(ptr noundef align 8 dereferenceable_or_null(24) %42) #23
  %44 = getelementptr inbounds nuw %"class.QList<int>::const_iterator", ptr %13, i32 0, i32 0
  store ptr %43, ptr %44, align 8
  br label %45

45:                                               ; preds = %66, %40
  %46 = invoke noundef align 8 dereferenceable(8) ptr @_ZN5QListIiE14const_iteratorppEv(ptr noundef align 8 dereferenceable_or_null(8) %10)
          to label %47 unwind label %74

47:                                               ; preds = %45
  call void @llvm.memcpy.p0.p0.i64(ptr align 8 %14, ptr align 8 %13, i64 8, i1 false)
  %48 = getelementptr inbounds nuw %"class.QList<int>::const_iterator", ptr %14, i32 0, i32 0
  %49 = load ptr, ptr %48, align 8
  %50 = call noundef zeroext i1 @_ZNK5QListIiE14const_iteratorneES1_(ptr noundef align 8 dereferenceable_or_null(8) %46, ptr %49)
  br i1 %50, label %51, label %67

51:                                               ; preds = %47
  %52 = invoke noundef align 4 dereferenceable(4) ptr @_ZNK5QListIiE14const_iteratordeEv(ptr noundef align 8 dereferenceable_or_null(8) %10)
          to label %53 unwind label %74

53:                                               ; preds = %51
  %54 = load i32, ptr %52, align 4
  %55 = load ptr, ptr %6, align 8
  %56 = load i32, ptr %55, align 4
  %57 = icmp eq i32 %54, %56
  br i1 %57, label %58, label %66

58:                                               ; preds = %53
  %59 = load ptr, ptr %5, align 8
  %60 = call ptr @_ZNK5QListIiE5beginEv(ptr noundef align 8 dereferenceable_or_null(24) %59) #23
  %61 = getelementptr inbounds nuw %"class.QList<int>::const_iterator", ptr %15, i32 0, i32 0
  store ptr %60, ptr %61, align 8
  %62 = getelementptr inbounds nuw %"class.QList<int>::const_iterator", ptr %15, i32 0, i32 0
  %63 = load ptr, ptr %62, align 8
  %64 = invoke noundef i64 @_ZNK5QListIiE14const_iteratormiES1_(ptr noundef align 8 dereferenceable_or_null(8) %10, ptr %63)
          to label %65 unwind label %74

65:                                               ; preds = %58
  store i64 %64, ptr %4, align 8
  store i32 1, ptr %16, align 4
  br label %68

66:                                               ; preds = %53
  br label %45, !llvm.loop !23

67:                                               ; preds = %47
  store i32 0, ptr %16, align 4
  br label %68

68:                                               ; preds = %67, %65
  call void @llvm.lifetime.end.p0(i64 8, ptr %13) #23
  call void @llvm.lifetime.end.p0(i64 8, ptr %10) #23
  %69 = load i32, ptr %16, align 4
  switch i32 %69, label %77 [
    i32 0, label %70
    i32 1, label %72
  ]

70:                                               ; preds = %68
  br label %71

71:                                               ; preds = %70, %26
  store i64 -1, ptr %4, align 8
  br label %72

72:                                               ; preds = %71, %68
  %73 = load i64, ptr %4, align 8
  ret i64 %73

74:                                               ; preds = %58, %51, %45, %37, %31
  %75 = landingpad { ptr, i32 }
          catch ptr null
  %76 = extractvalue { ptr, i32 } %75, 0
  call void @__clang_call_terminate(ptr %76) #24
  unreachable

77:                                               ; preds = %68
  unreachable
}

; Function Attrs: noinline noreturn nounwind null_pointer_is_valid sspstrong uwtable
define linkonce_odr hidden void @__clang_call_terminate(ptr noundef %0) #3 comdat {
  %2 = call ptr @__cxa_begin_catch(ptr %0) #23
  call void @_ZSt9terminatev() #24
  unreachable
}

; Function Attrs: mustprogress nounwind null_pointer_is_valid sspstrong uwtable
define linkonce_odr noundef i64 @_ZNK23QListSpecialMethodsBaseIiE7indexOfIiEExRKT_x(ptr noundef align 1 dereferenceable_or_null(1) %0, ptr noundef align 4 dereferenceable(4) %1, i64 noundef %2) #2 comdat align 2 {
  %4 = alloca ptr, align 8
  %5 = alloca ptr, align 8
  %6 = alloca i64, align 8
  store ptr %0, ptr %4, align 8
  store ptr %1, ptr %5, align 8
  store i64 %2, ptr %6, align 8
  %7 = load ptr, ptr %4, align 8
  %8 = call noundef ptr @_ZNK23QListSpecialMethodsBaseIiE4selfEv(ptr noundef align 1 dereferenceable_or_null(1) %7)
  %9 = load ptr, ptr %5, align 8
  %10 = load i64, ptr %6, align 8
  %11 = call noundef i64 @_ZN9QtPrivate7indexOfIiiEExRK5QListIT_ERKT0_x(ptr noundef align 8 dereferenceable(24) %8, ptr noundef align 4 dereferenceable(4) %9, i64 noundef %10) #23
  ret i64 %11
}

; Function Attrs: mustprogress nounwind null_pointer_is_valid sspstrong uwtable
define linkonce_odr noundef ptr @_ZNK23QListSpecialMethodsBaseIiE4selfEv(ptr noundef align 1 dereferenceable_or_null(1) %0) #2 comdat align 2 {
  %2 = alloca ptr, align 8
  store ptr %0, ptr %2, align 8
  %3 = load ptr, ptr %2, align 8
  ret ptr %3
}

; Function Attrs: mustprogress nounwind null_pointer_is_valid sspstrong uwtable
define linkonce_odr noundef zeroext i1 @_ZNK23QListSpecialMethodsBaseIiE8containsIiEEbRKT_(ptr noundef align 1 dereferenceable_or_null(1) %0, ptr noundef align 4 dereferenceable(4) %1) #2 comdat align 2 personality ptr @__gxx_personality_v0 {
  %3 = alloca ptr, align 8
  %4 = alloca ptr, align 8
  store ptr %0, ptr %3, align 8
  store ptr %1, ptr %4, align 8
  %5 = load ptr, ptr %3, align 8
  %6 = invoke noundef ptr @_ZNK23QListSpecialMethodsBaseIiE4selfEv(ptr noundef align 1 dereferenceable_or_null(1) %5)
          to label %7 unwind label %11

7:                                                ; preds = %2
  %8 = load ptr, ptr %4, align 8
  %9 = call noundef i64 @_ZNK23QListSpecialMethodsBaseIiE7indexOfIiEExRKT_x(ptr noundef align 1 dereferenceable_or_null(1) %6, ptr noundef align 4 dereferenceable(4) %8, i64 noundef 0) #23
  %10 = icmp ne i64 %9, -1
  ret i1 %10

11:                                               ; preds = %2
  %12 = landingpad { ptr, i32 }
          catch ptr null
  %13 = extractvalue { ptr, i32 } %12, 0
  call void @__clang_call_terminate(ptr %13) #24
  unreachable
}

; Function Attrs: mustprogress nounwind null_pointer_is_valid sspstrong uwtable
define noundef zeroext i1 @_ZNK28AStringListListUrlProxyModel11isUrlColumnEi(ptr noundef align 8 dereferenceable_or_null(40) %0, i32 noundef %1) #2 align 2 {
  %3 = alloca ptr, align 8
  %4 = alloca i32, align 4
  store ptr %0, ptr %3, align 8
  store i32 %1, ptr %4, align 4
  %5 = load ptr, ptr %3, align 8
  %6 = getelementptr inbounds nuw %class.AStringListListUrlProxyModel, ptr %5, i32 0, i32 1
  %7 = call noundef zeroext i1 @_ZNK23QListSpecialMethodsBaseIiE8containsIiEEbRKT_(ptr noundef align 1 dereferenceable_or_null(1) %6, ptr noundef align 4 dereferenceable(4) %4) #23
  ret i1 %7
}