; Function Attrs: mustprogress nofree norecurse nosync nounwind null_pointer_is_valid sspstrong willreturn memory(read, inaccessiblemem: none) uwtable
define noundef zeroext i1 @_ZNK28AStringListListUrlProxyModel11isUrlColumnEi(ptr noundef readonly align 8 captures(none) dereferenceable_or_null(40) %0, i32 noundef %1) local_unnamed_addr #12 align 2 personality ptr @__gxx_personality_v0 {
  %3 = getelementptr inbounds nuw i8, ptr %0, i64 32
  %4 = load i64, ptr %3, align 8
  %5 = icmp sgt i64 %4, 0
  br i1 %5, label %6, label %_ZNK23QListSpecialMethodsBaseIiE8containsIiEEbRKT_.exit

6:                                                ; preds = %2
  %7 = getelementptr inbounds nuw i8, ptr %0, i64 24
  %8 = load ptr, ptr %7, align 8
  %9 = getelementptr i8, ptr %8, i64 -4
  %10 = getelementptr i32, ptr %8, i64 %4
  br label %11

11:                                               ; preds = %13, %6
  %.sroa.018.0.i.i.i = phi ptr [ %9, %6 ], [ %12, %13 ]
  %12 = getelementptr i8, ptr %.sroa.018.0.i.i.i, i64 4
  %.not.i.i.i = icmp eq ptr %12, %10
  br i1 %.not.i.i.i, label %_ZNK23QListSpecialMethodsBaseIiE8containsIiEEbRKT_.exit, label %13

13:                                               ; preds = %11
  %14 = load i32, ptr %12, align 4
  %15 = icmp eq i32 %14, %1
  br i1 %15, label %16, label %11, !llvm.loop !17

16:                                               ; preds = %13
  %17 = ptrtoint ptr %12 to i64
  %18 = ptrtoint ptr %8 to i64
  %19 = sub i64 %17, %18
  %20 = icmp ne i64 %19, -4
  br label %_ZNK23QListSpecialMethodsBaseIiE8containsIiEEbRKT_.exit

_ZNK23QListSpecialMethodsBaseIiE8containsIiEEbRKT_.exit: ; preds = %11, %2, %16
  %.1.i.i.i = phi i1 [ %20, %16 ], [ false, %2 ], [ false, %11 ]
  ret i1 %.1.i.i.i
}